(dp1
S'links'
p2
(lp3
(dp4
S'img_url'
p5
Vhttp://i.imgur.com/rH2Ah1J.jpg
p6
sS'source_url'
p7
Vhttps://www.reddit.com/r/EarthPorn/comments/56ujtr/the_giants_causeway_northern_ireland_uk_5312x2988/
p8
sa(dp9
g5
Vhttp://i.imgur.com/DBrDfam.jpg
p10
sg7
Vhttps://www.reddit.com/r/EarthPorn/comments/56t72o/this_is_the_lowest_i_have_ever_seen_the_water/
p11
sa(dp12
g5
Vhttp://i.imgur.com/r6r18lT.jpg
p13
sg7
Vhttps://www.reddit.com/r/EarthPorn/comments/56w9xe/moody_forest_friesland_the_netherlands_oc1500x1000/
p14
sa(dp15
g5
Vhttp://imgur.com/eEgqWjG
p16
sg7
Vhttps://www.reddit.com/r/EarthPorn/comments/56s5b1/lake_ringedalsvatnet_on_a_misty_trek_to/
p17
sa(dp18
g5
Vhttp://imgur.com/C8uZp0h
p19
sg7
Vhttps://www.reddit.com/r/EarthPorn/comments/56suee/finally_visited_my_dad_at_his_new_place/
p20
sa(dp21
g5
Vhttp://i.imgur.com/nRHW2si.jpg
p22
sg7
Vhttps://www.reddit.com/r/EarthPorn/comments/56staa/blue_ridge_mountains_in_north_carolina_oc/
p23
sa(dp24
g5
Vhttp://imgur.com/l6E2D4C
p25
sg7
Vhttps://www.reddit.com/r/EarthPorn/comments/56usyg/another_one_from_the_franconia_region_top_of_mt/
p26
sa(dp27
g5
Vhttp://i.imgur.com/AIYyaoD.jpg
p28
sg7
Vhttps://www.reddit.com/r/EarthPorn/comments/56u239/view_from_horseshoe_bend_az_earlier_this_summer/
p29
sa(dp30
g5
Vhttp://i.imgur.com/KUFugbn.jpg
p31
sg7
Vhttps://www.reddit.com/r/EarthPorn/comments/56u5g3/fall_creek_three_sisters_wilderness_oregon_oc/
p32
sa(dp33
g5
Vhttp://i.imgur.com/2xIVcWL.jpg
p34
sg7
Vhttps://www.reddit.com/r/EarthPorn/comments/56vbtw/lake_of_the_clouds_mi_oc4928_x_3264/
p35
sa(dp36
g5
Vhttp://imgur.com/psTcqqu
p37
sg7
Vhttps://www.reddit.com/r/EarthPorn/comments/56t3ns/niagara_falls_canada_oc2988x2988/
p38
sa(dp39
g5
Vhttp://i.imgur.com/ioQxRAd.jpg
p40
sg7
Vhttps://www.reddit.com/r/EarthPorn/comments/56xiso/epic_geological_fault_caused_this_amazing_cascade/
p41
sa(dp42
g5
Vhttp://imgur.com/XENbl2R
p43
sg7
Vhttps://www.reddit.com/r/EarthPorn/comments/56vvm5/old_main_peak_medicine_bow_national_forest_wy_not/
p44
sa(dp45
g5
Vhttp://imgur.com/m96zIIq
p46
sg7
Vhttps://www.reddit.com/r/EarthPorn/comments/56w4gz/mt_rinjani_indonesia_oc2560x1440/
p47
sa(dp48
g5
Vhttp://imgur.com/IGM3KZo
p49
sg7
Vhttps://www.reddit.com/r/EarthPorn/comments/56x909/lushoto_tanzania_oc_5635x3757/
p50
sa(dp51
g5
Vhttp://i.imgur.com/eXi9uvs.jpg
p52
sg7
Vhttps://www.reddit.com/r/EarthPorn/comments/56tjai/yet_another_photo_of_yosemites_tunnel_view_the/
p53
sa(dp54
g5
Vhttp://i.imgur.com/RGMjNbp.jpg
p55
sg7
Vhttps://www.reddit.com/r/EarthPorn/comments/56twl6/3_sisters_oregon_after_a_fresh_dusting_5184x3456oc/
p56
sa(dp57
g5
Vhttp://i.imgur.com/ZzPwxVF.jpg
p58
sg7
Vhttps://www.reddit.com/r/EarthPorn/comments/56wfbc/equinox_pond_manchester_vt_oc_2747_x_1832/
p59
sa(dp60
g5
Vhttp://imgur.com/3KevGid
p61
sg7
Vhttps://www.reddit.com/r/EarthPorn/comments/56wump/close_up_at_proxy_falls_oregon_oc_3000x1970/
p62
sa(dp63
g5
Vhttp://i.imgur.com/lzp1kSn.jpg
p64
sg7
Vhttps://www.reddit.com/r/EarthPorn/comments/56ww7y/brown_county_state_park_nashville_in_oc_3614x5414/
p65
sa(dp66
g5
Vhttp://imgur.com/lOiqrDK
p67
sg7
Vhttps://www.reddit.com/r/EarthPorn/comments/56tq3g/desert_spire_near_capitol_reef_utah_oc_5567x4000/
p68
sa(dp69
g5
Vhttp://i.imgur.com/yE2legq.jpg
p70
sg7
Vhttps://www.reddit.com/r/EarthPorn/comments/56tndi/mount_chocorua_chocorua_nh_oc_5184_3456/
p71
sa(dp72
g5
Vhttp://imgur.com/VqtTPcx
p73
sg7
Vhttps://www.reddit.com/r/EarthPorn/comments/56t625/isla_mujeres_mexico_3218_x_2414_oc/
p74
sas.